target datalayout = "e-m:e-p270:32:32-p271:32:32-p272:64:64-i64:64-i128:128-f80:128-n8:16:32:64-S128"
target triple = "x86_64-pc-linux-gnu"

%struct.response_class = type { ptr, i64, ptr }
%struct.evhttp_connection = type { %struct.anon, ptr, %struct.event, ptr, i16, ptr, i16, ptr, i64, i64, i32, %struct.timeval, %struct.timeval, %struct.timeval, i32, i32, %struct.timeval, i32, ptr, %struct.evcon_requestq, ptr, ptr, ptr, ptr, %struct.event_callback, ptr, ptr, i32, ptr }
%struct.anon = type { ptr, ptr }
%struct.event = type { %struct.event_callback, %union.anon.1, i32, i16, i16, ptr, %union.anon.3, %struct.timeval }
%union.anon.1 = type { %struct.anon.2 }
%struct.anon.2 = type { ptr, ptr }
%union.anon.3 = type { %struct.anon.4 }
%struct.anon.4 = type { %struct.anon.5, %struct.timeval }
%struct.anon.5 = type { ptr, ptr }
%struct.timeval = type { i64, i64 }
%struct.evcon_requestq = type { ptr, ptr }
%struct.event_callback = type { %struct.anon.0, i16, i8, i8, %union.anon, ptr }
%struct.anon.0 = type { ptr, ptr }
%union.anon = type { ptr }
%struct.evhttp_request = type { %struct.anon.8, ptr, i32, ptr, ptr, ptr, i16, ptr, i32, i32, i64, i64, ptr, ptr, i8, i8, i32, ptr, ptr, i64, i8, ptr, ptr, ptr, ptr, ptr, ptr, ptr, ptr }
%struct.anon.8 = type { ptr, ptr }

@.str.2 = private unnamed_addr constant [11 x i8] c"%s: strdup\00", align 1
@event_debug_logging_mask_ = external global i32, align 4
@.str.20 = private unnamed_addr constant [20 x i8] c"Switching Protocols\00", align 1
@__func__.evhttp_response_code_ = private unnamed_addr constant [22 x i8] c"evhttp_response_code_\00", align 1
@.str.95 = private unnamed_addr constant [31 x i8] c"%s: preparing to write buffer\0A\00", align 1
@__func__.evhttp_write_buffer = private unnamed_addr constant [20 x i8] c"evhttp_write_buffer\00", align 1
@.str.105 = private unnamed_addr constant [21 x i8] c"Unknown Status Class\00", align 1

; Function Attrs: nounwind uwtable
define internal ptr @evhttp_response_phrase_internal(i32 noundef %0) #0 {
  %2 = alloca ptr, align 8
  %3 = alloca i32, align 4
  %4 = alloca i32, align 4
  %5 = alloca i32, align 4
  %6 = alloca i32, align 4
  store i32 %0, ptr %3, align 4
  call void @llvm.lifetime.start.p0(i64 4, ptr %4) #11
  %7 = load i32, ptr %3, align 4
  %8 = sdiv i32 %7, 100
  %9 = sub nsw i32 %8, 1
  store i32 %9, ptr %4, align 4
  call void @llvm.lifetime.start.p0(i64 4, ptr %5) #11
  %10 = load i32, ptr %3, align 4
  %11 = srem i32 %10, 100
  store i32 %11, ptr %5, align 4
  %12 = load i32, ptr %4, align 4
  %13 = icmp slt i32 %12, 0
  br i1 %13, label %17, label %14

14:                                               ; preds = %1
  %15 = load i32, ptr %4, align 4
  %16 = icmp sge i32 %15, 5
  br i1 %16, label %17, label %18

17:                                               ; preds = %14, %1
  store ptr @.str.105, ptr %2, align 8
  store i32 1, ptr %6, align 4
  br label %43

18:                                               ; preds = %14
  %19 = load i32, ptr %5, align 4
  %20 = load i32, ptr %4, align 4
  %21 = sext i32 %20 to i64
  %22 = getelementptr inbounds [5 x %struct.response_class], ptr @response_classes, i64 0, i64 %21
  %23 = getelementptr inbounds nuw %struct.response_class, ptr %22, i32 0, i32 1
  %24 = load i64, ptr %23, align 8
  %25 = trunc i64 %24 to i32
  %26 = icmp sge i32 %19, %25
  br i1 %26, label %27, label %33

27:                                               ; preds = %18
  %28 = load i32, ptr %4, align 4
  %29 = sext i32 %28 to i64
  %30 = getelementptr inbounds [5 x %struct.response_class], ptr @response_classes, i64 0, i64 %29
  %31 = getelementptr inbounds nuw %struct.response_class, ptr %30, i32 0, i32 0
  %32 = load ptr, ptr %31, align 8
  store ptr %32, ptr %2, align 8
  store i32 1, ptr %6, align 4
  br label %43

33:                                               ; preds = %18
  %34 = load i32, ptr %4, align 4
  %35 = sext i32 %34 to i64
  %36 = getelementptr inbounds [5 x %struct.response_class], ptr @response_classes, i64 0, i64 %35
  %37 = getelementptr inbounds nuw %struct.response_class, ptr %36, i32 0, i32 2
  %38 = load ptr, ptr %37, align 8
  %39 = load i32, ptr %5, align 4
  %40 = sext i32 %39 to i64
  %41 = getelementptr inbounds ptr, ptr %38, i64 %40
  %42 = load ptr, ptr %41, align 8
  store ptr %42, ptr %2, align 8
  store i32 1, ptr %6, align 4
  br label %43

43:                                               ; preds = %33, %27, %17
  call void @llvm.lifetime.end.p0(i64 4, ptr %5) #11
  call void @llvm.lifetime.end.p0(i64 4, ptr %4) #11
  %44 = load ptr, ptr %2, align 8
  ret ptr %44
}

; Function Attrs: nounwind uwtable
define internal void @evhttp_write_buffer(ptr noundef %0, ptr noundef %1, ptr noundef %2) #0 {
  %4 = alloca ptr, align 8
  %5 = alloca ptr, align 8
  %6 = alloca ptr, align 8
  store ptr %0, ptr %4, align 8
  store ptr %1, ptr %5, align 8
  store ptr %2, ptr %6, align 8
  br label %7

7:                                                ; preds = %3
  %8 = load i32, ptr @event_debug_logging_mask_, align 4
  %9 = icmp ne i32 %8, 0
  br i1 %9, label %10, label %11

10:                                               ; preds = %7
  call void (ptr, ...) @event_debugx_(ptr noundef @.str.95, ptr noundef @__func__.evhttp_write_buffer)
  br label %11

11:                                               ; preds = %10, %7
  br label %12

12:                                               ; preds = %11
  %13 = load ptr, ptr %5, align 8
  %14 = load ptr, ptr %4, align 8
  %15 = getelementptr inbounds nuw %struct.evhttp_connection, ptr %14, i32 0, i32 20
  store ptr %13, ptr %15, align 8
  %16 = load ptr, ptr %6, align 8
  %17 = load ptr, ptr %4, align 8
  %18 = getelementptr inbounds nuw %struct.evhttp_connection, ptr %17, i32 0, i32 21
  store ptr %16, ptr %18, align 8
  %19 = load ptr, ptr %4, align 8
  %20 = getelementptr inbounds nuw %struct.evhttp_connection, ptr %19, i32 0, i32 1
  %21 = load ptr, ptr %20, align 8
  %22 = load ptr, ptr %4, align 8
  call void @bufferevent_setcb(ptr noundef %21, ptr noundef null, ptr noundef @evhttp_write_cb, ptr noundef @evhttp_error_cb, ptr noundef %22)
  %23 = load ptr, ptr %4, align 8
  %24 = getelementptr inbounds nuw %struct.evhttp_connection, ptr %23, i32 0, i32 1
  %25 = load ptr, ptr %24, align 8
  %26 = call i32 @bufferevent_enable(ptr noundef %25, i16 noundef signext 6)
  ret void
}

; Function Attrs: nounwind uwtable
define hidden void @evhttp_response_code_(ptr noundef %0, i32 noundef %1, ptr noundef %2) #0 {
  %4 = alloca ptr, align 8
  %5 = alloca i32, align 4
  %6 = alloca ptr, align 8
  store ptr %0, ptr %4, align 8
  store i32 %1, ptr %5, align 4
  store ptr %2, ptr %6, align 8
  %7 = load ptr, ptr %4, align 8
  %8 = getelementptr inbounds nuw %struct.evhttp_request, ptr %7, i32 0, i32 8
  store i32 1, ptr %8, align 8
  %9 = load i32, ptr %5, align 4
  %10 = load ptr, ptr %4, align 8
  %11 = getelementptr inbounds nuw %struct.evhttp_request, ptr %10, i32 0, i32 16
  store i32 %9, ptr %11, align 4
  %12 = load ptr, ptr %4, align 8
  %13 = getelementptr inbounds nuw %struct.evhttp_request, ptr %12, i32 0, i32 17
  %14 = load ptr, ptr %13, align 8
  %15 = icmp ne ptr %14, null
  br i1 %15, label %16, label %20

16:                                               ; preds = %3
  %17 = load ptr, ptr %4, align 8
  %18 = getelementptr inbounds nuw %struct.evhttp_request, ptr %17, i32 0, i32 17
  %19 = load ptr, ptr %18, align 8
  call void @event_mm_free_(ptr noundef %19)
  br label %20

20:                                               ; preds = %16, %3
  %21 = load ptr, ptr %6, align 8
  %22 = icmp eq ptr %21, null
  br i1 %22, label %23, label %26

23:                                               ; preds = %20
  %24 = load i32, ptr %5, align 4
  %25 = call ptr @evhttp_response_phrase_internal(i32 noundef %24)
  store ptr %25, ptr %6, align 8
  br label %26

26:                                               ; preds = %23, %20
  %27 = load ptr, ptr %6, align 8
  %28 = call ptr @event_mm_strdup_(ptr noundef %27)
  %29 = load ptr, ptr %4, align 8
  %30 = getelementptr inbounds nuw %struct.evhttp_request, ptr %29, i32 0, i32 17
  store ptr %28, ptr %30, align 8
  %31 = load ptr, ptr %4, align 8
  %32 = getelementptr inbounds nuw %struct.evhttp_request, ptr %31, i32 0, i32 17
  %33 = load ptr, ptr %32, align 8
  %34 = icmp eq ptr %33, null
  br i1 %34, label %35, label %36

35:                                               ; preds = %26
  call void (ptr, ...) @event_warn(ptr noundef @.str.2, ptr noundef @__func__.evhttp_response_code_)
  br label %36

36:                                               ; preds = %35, %26
  ret void
}

; Function Attrs: nounwind uwtable
define hidden ptr @evhttp_start_ws_(ptr noundef %0) #0 {
  %2 = alloca ptr, align 8
  %3 = alloca ptr, align 8
  %4 = alloca ptr, align 8
  %5 = alloca ptr, align 8
  %6 = alloca i32, align 4
  store ptr %0, ptr %3, align 8
  call void @llvm.lifetime.start.p0(i64 8, ptr %4) #11
  %7 = load ptr, ptr %3, align 8
  %8 = getelementptr inbounds nuw %struct.evhttp_request, ptr %7, i32 0, i32 1
  %9 = load ptr, ptr %8, align 8
  store ptr %9, ptr %4, align 8
  call void @llvm.lifetime.start.p0(i64 8, ptr %5) #11
  %10 = load ptr, ptr %3, align 8
  call void @evhttp_response_code_(ptr noundef %10, i32 noundef 101, ptr noundef @.str.20)
  %11 = load ptr, ptr %3, align 8
  %12 = getelementptr inbounds nuw %struct.evhttp_request, ptr %11, i32 0, i32 1
  %13 = load ptr, ptr %12, align 8
  %14 = icmp eq ptr %13, null
  br i1 %14, label %15, label %16

15:                                               ; preds = %1
  store ptr null, ptr %2, align 8
  store i32 1, ptr %6, align 4
  br label %70

16:                                               ; preds = %1
  %17 = load ptr, ptr %3, align 8
  %18 = getelementptr inbounds nuw %struct.evhttp_request, ptr %17, i32 0, i32 1
  %19 = load ptr, ptr %18, align 8
  %20 = load ptr, ptr %3, align 8
  call void @evhttp_make_header(ptr noundef %19, ptr noundef %20)
  %21 = load ptr, ptr %3, align 8
  %22 = getelementptr inbounds nuw %struct.evhttp_request, ptr %21, i32 0, i32 1
  %23 = load ptr, ptr %22, align 8
  call void @evhttp_write_buffer(ptr noundef %23, ptr noundef null, ptr noundef null)
  br label %24

24:                                               ; preds = %16
  %25 = load ptr, ptr %3, align 8
  %26 = getelementptr inbounds nuw %struct.evhttp_request, ptr %25, i32 0, i32 0
  %27 = getelementptr inbounds nuw %struct.anon.8, ptr %26, i32 0, i32 0
  %28 = load ptr, ptr %27, align 8
  %29 = icmp ne ptr %28, null
  br i1 %29, label %30, label %41

30:                                               ; preds = %24
  %31 = load ptr, ptr %3, align 8
  %32 = getelementptr inbounds nuw %struct.evhttp_request, ptr %31, i32 0, i32 0
  %33 = getelementptr inbounds nuw %struct.anon.8, ptr %32, i32 0, i32 1
  %34 = load ptr, ptr %33, align 8
  %35 = load ptr, ptr %3, align 8
  %36 = getelementptr inbounds nuw %struct.evhttp_request, ptr %35, i32 0, i32 0
  %37 = getelementptr inbounds nuw %struct.anon.8, ptr %36, i32 0, i32 0
  %38 = load ptr, ptr %37, align 8
  %39 = getelementptr inbounds nuw %struct.evhttp_request, ptr %38, i32 0, i32 0
  %40 = getelementptr inbounds nuw %struct.anon.8, ptr %39, i32 0, i32 1
  store ptr %34, ptr %40, align 8
  br label %49

41:                                               ; preds = %24
  %42 = load ptr, ptr %3, align 8
  %43 = getelementptr inbounds nuw %struct.evhttp_request, ptr %42, i32 0, i32 0
  %44 = getelementptr inbounds nuw %struct.anon.8, ptr %43, i32 0, i32 1
  %45 = load ptr, ptr %44, align 8
  %46 = load ptr, ptr %4, align 8
  %47 = getelementptr inbounds nuw %struct.evhttp_connection, ptr %46, i32 0, i32 19
  %48 = getelementptr inbounds nuw %struct.evcon_requestq, ptr %47, i32 0, i32 1
  store ptr %45, ptr %48, align 8
  br label %49

49:                                               ; preds = %41, %30
  %50 = load ptr, ptr %3, align 8
  %51 = getelementptr inbounds nuw %struct.evhttp_request, ptr %50, i32 0, i32 0
  %52 = getelementptr inbounds nuw %struct.anon.8, ptr %51, i32 0, i32 0
  %53 = load ptr, ptr %52, align 8
  %54 = load ptr, ptr %3, align 8
  %55 = getelementptr inbounds nuw %struct.evhttp_request, ptr %54, i32 0, i32 0
  %56 = getelementptr inbounds nuw %struct.anon.8, ptr %55, i32 0, i32 1
  %57 = load ptr, ptr %56, align 8
  store ptr %53, ptr %57, align 8
  br label %58

58:                                               ; preds = %49
  br label %59

59:                                               ; preds = %58
  %60 = load ptr, ptr %4, align 8
  %61 = getelementptr inbounds nuw %struct.evhttp_connection, ptr %60, i32 0, i32 1
  %62 = load ptr, ptr %61, align 8
  store ptr %62, ptr %5, align 8
  %63 = load ptr, ptr %4, align 8
  %64 = getelementptr inbounds nuw %struct.evhttp_connection, ptr %63, i32 0, i32 1
  store ptr null, ptr %64, align 8
  %65 = load ptr, ptr %4, align 8
  %66 = getelementptr inbounds nuw %struct.evhttp_connection, ptr %65, i32 0, i32 22
  store ptr null, ptr %66, align 8
  %67 = load ptr, ptr %3, align 8
  call void @evhttp_request_free(ptr noundef %67)
  %68 = load ptr, ptr %4, align 8
  call void @evhttp_connection_free(ptr noundef %68)
  %69 = load ptr, ptr %5, align 8
  store ptr %69, ptr %2, align 8
  store i32 1, ptr %6, align 4
  br label %70

70:                                               ; preds = %59, %15
  call void @llvm.lifetime.end.p0(i64 8, ptr %5) #11
  call void @llvm.lifetime.end.p0(i64 8, ptr %4) #11
  %71 = load ptr, ptr %2, align 8
  ret ptr %71
}