; Function Attrs: nounwind uwtable
define hidden ptr @evhttp_start_ws_(ptr noundef initializes((72, 76), (116, 120)) %0) local_unnamed_addr #0 {
  %2 = getelementptr inbounds nuw i8, ptr %0, i64 16
  %3 = load ptr, ptr %2, align 8
  %4 = getelementptr inbounds nuw i8, ptr %0, i64 72
  store i32 1, ptr %4, align 8
  %5 = getelementptr inbounds nuw i8, ptr %0, i64 116
  store i32 101, ptr %5, align 4
  %6 = getelementptr inbounds nuw i8, ptr %0, i64 120
  %7 = load ptr, ptr %6, align 8
  %.not.i = icmp eq ptr %7, null
  br i1 %.not.i, label %9, label %8

8:                                                ; preds = %1
  tail call void @event_mm_free_(ptr noundef nonnull %7) #18
  br label %9

9:                                                ; preds = %8, %1
  %10 = tail call ptr @event_mm_strdup_(ptr noundef nonnull @.str.20) #18
  store ptr %10, ptr %6, align 8
  %11 = icmp eq ptr %10, null
  br i1 %11, label %12, label %evhttp_response_code_.exit

12:                                               ; preds = %9
  tail call void (ptr, ...) @event_warn(ptr noundef nonnull @.str.2, ptr noundef nonnull @__func__.evhttp_response_code_) #18
  br label %evhttp_response_code_.exit

evhttp_response_code_.exit:                       ; preds = %9, %12
  %13 = load ptr, ptr %2, align 8
  %14 = icmp eq ptr %13, null
  br i1 %14, label %36, label %15

15:                                               ; preds = %evhttp_response_code_.exit
  tail call fastcc void @evhttp_make_header(ptr noundef nonnull %13, ptr noundef nonnull %0)
  %16 = load ptr, ptr %2, align 8
  %17 = load i32, ptr @event_debug_logging_mask_, align 4
  %.not.i22 = icmp eq i32 %17, 0
  br i1 %.not.i22, label %evhttp_write_buffer.exit, label %18

18:                                               ; preds = %15
  tail call void (ptr, ...) @event_debugx_(ptr noundef nonnull @.str.95, ptr noundef nonnull @__func__.evhttp_write_buffer) #18
  br label %evhttp_write_buffer.exit

evhttp_write_buffer.exit:                         ; preds = %15, %18
  %19 = getelementptr inbounds nuw i8, ptr %16, i64 312
  %20 = getelementptr inbounds nuw i8, ptr %16, i64 16
  tail call void @llvm.memset.p0.i64(ptr noundef nonnull align 8 dereferenceable(16) %19, i8 0, i64 16, i1 false)
  %21 = load ptr, ptr %20, align 8
  tail call void @bufferevent_setcb(ptr noundef %21, ptr noundef null, ptr noundef nonnull @evhttp_write_cb, ptr noundef nonnull @evhttp_error_cb, ptr noundef %16) #18
  %22 = load ptr, ptr %20, align 8
  %23 = tail call i32 @bufferevent_enable(ptr noundef %22, i16 noundef signext 6) #18
  %24 = load ptr, ptr %0, align 8
  %.not = icmp eq ptr %24, null
  %25 = getelementptr inbounds nuw i8, ptr %0, i64 8
  %26 = load ptr, ptr %25, align 8
  br i1 %.not, label %29, label %27

27:                                               ; preds = %evhttp_write_buffer.exit
  %28 = getelementptr inbounds nuw i8, ptr %24, i64 8
  store ptr %26, ptr %28, align 8
  br label %31

29:                                               ; preds = %evhttp_write_buffer.exit
  %30 = getelementptr inbounds nuw i8, ptr %3, i64 304
  store ptr %26, ptr %30, align 8
  br label %31

31:                                               ; preds = %29, %27
  %32 = load ptr, ptr %0, align 8
  store ptr %32, ptr %26, align 8
  %33 = getelementptr inbounds nuw i8, ptr %3, i64 16
  %34 = load ptr, ptr %33, align 8
  store ptr null, ptr %33, align 8
  %35 = getelementptr inbounds nuw i8, ptr %3, i64 328
  store ptr null, ptr %35, align 8
  tail call void @evhttp_request_free(ptr noundef nonnull %0)
  tail call void @evhttp_connection_free(ptr noundef %3)
  br label %36

36:                                               ; preds = %evhttp_response_code_.exit, %31
  %.0 = phi ptr [ %34, %31 ], [ null, %evhttp_response_code_.exit ]
  ret ptr %.0
}